; ModuleID = '24/2678.c'
source_filename = "24/2678.c"
target datalayout = "e-m:e-p270:32:32-p271:32:32-p272:64:64-i64:64-f80:128-n8:16:32:64-S128"
target triple = "x86_64-pc-linux-gnu"

@.str = private unnamed_addr constant [3 x i8] c"%d\00", align 1
@.str.1 = private unnamed_addr constant [3 x i8] c"%s\00", align 1

; Function Attrs: noinline nounwind uwtable
define dso_local i32 @main() #0 {
  %1 = alloca i32, align 4
  %2 = alloca [200 x [20 x i8]], align 16
  %3 = alloca i32, align 4
  %4 = alloca i32, align 4
  %5 = alloca i32, align 4
  %6 = alloca i32, align 4
  %7 = alloca i32, align 4
  %8 = alloca i32, align 4
  %9 = alloca i32, align 4
  %10 = alloca [200 x i32], align 16
  %11 = alloca i32, align 4
  store i32 0, i32* %1, align 4
  %12 = bitcast [200 x [20 x i8]]* %2 to i8*
  call void @llvm.memset.p0i8.i64(i8* align 16 %12, i8 0, i64 4000, i1 false)
  store i32 0, i32* %3, align 4
  %13 = bitcast [200 x i32]* %10 to i8*
  call void @llvm.memset.p0i8.i64(i8* align 16 %13, i8 0, i64 800, i1 false)
  %14 = call i32 (i8*, ...) @__isoc99_scanf(i8* getelementptr inbounds ([3 x i8], [3 x i8]* @.str, i64 0, i64 0), i32* %11)
  br label %15

15:                                               ; preds = %47, %0
  %16 = load i32, i32* %3, align 4
  %17 = sext i32 %16 to i64
  %18 = getelementptr inbounds [200 x [20 x i8]], [200 x [20 x i8]]* %2, i64 0, i64 %17
  %19 = getelementptr inbounds [20 x i8], [20 x i8]* %18, i64 0, i64 0
  %20 = call i32 (i8*, ...) @__isoc99_scanf(i8* getelementptr inbounds ([3 x i8], [3 x i8]* @.str.1, i64 0, i64 0), i8* %19)
  %21 = icmp ne i32 %20, -1
  br i1 %21, label %22, label %54

22:                                               ; preds = %15
  %23 = load i32, i32* %3, align 4
  %24 = sext i32 %23 to i64
  %25 = getelementptr inbounds [200 x [20 x i8]], [200 x [20 x i8]]* %2, i64 0, i64 %24
  %26 = getelementptr inbounds [20 x i8], [20 x i8]* %25, i64 0, i64 0
  %27 = call i64 @strlen(i8* %26) #4
  %28 = trunc i64 %27 to i32
  store i32 %28, i32* %4, align 4
  %29 = load i32, i32* %3, align 4
  %30 = sext i32 %29 to i64
  %31 = getelementptr inbounds [200 x [20 x i8]], [200 x [20 x i8]]* %2, i64 0, i64 %30
  %32 = load i32, i32* %4, align 4
  %33 = sub nsw i32 %32, 1
  %34 = sext i32 %33 to i64
  %35 = getelementptr inbounds [20 x i8], [20 x i8]* %31, i64 0, i64 %34
  %36 = load i8, i8* %35, align 1
  %37 = sext i8 %36 to i32
  %38 = icmp eq i32 %37, 44
  br i1 %38, label %39, label %47

39:                                               ; preds = %22
  %40 = load i32, i32* %3, align 4
  %41 = sext i32 %40 to i64
  %42 = getelementptr inbounds [200 x [20 x i8]], [200 x [20 x i8]]* %2, i64 0, i64 %41
  %43 = load i32, i32* %4, align 4
  %44 = add nsw i32 %43, -1
  store i32 %44, i32* %4, align 4
  %45 = sext i32 %44 to i64
  %46 = getelementptr inbounds [20 x i8], [20 x i8]* %42, i64 0, i64 %45
  store i8 0, i8* %46, align 1
  br label %47

47:                                               ; preds = %39, %22
  %48 = load i32, i32* %4, align 4
  %49 = load i32, i32* %3, align 4
  %50 = sext i32 %49 to i64
  %51 = getelementptr inbounds [200 x i32], [200 x i32]* %10, i64 0, i64 %50
  store i32 %48, i32* %51, align 4
  %52 = load i32, i32* %3, align 4
  %53 = add nsw i32 %52, 1
  store i32 %53, i32* %3, align 4
  br label %15

54:                                               ; preds = %15
  %55 = load i32, i32* %3, align 4
  %56 = sub nsw i32 %55, 1
  store i32 %56, i32* %5, align 4
  store i32 0, i32* %7, align 4
  store i32 0, i32* %6, align 4
  %57 = getelementptr inbounds [200 x i32], [200 x i32]* %10, i64 0, i64 0
  %58 = load i32, i32* %57, align 16
  store i32 %58, i32* %9, align 4
  store i32 %58, i32* %8, align 4
  store i32 1, i32* %3, align 4
  br label %59

59:                                               ; preds = %91, %54
  %60 = load i32, i32* %3, align 4
  %61 = load i32, i32* %5, align 4
  %62 = icmp sle i32 %60, %61
  br i1 %62, label %63, label %94

63:                                               ; preds = %59
  %64 = load i32, i32* %3, align 4
  %65 = sext i32 %64 to i64
  %66 = getelementptr inbounds [200 x i32], [200 x i32]* %10, i64 0, i64 %65
  %67 = load i32, i32* %66, align 4
  %68 = load i32, i32* %8, align 4
  %69 = icmp sgt i32 %67, %68
  br i1 %69, label %70, label %76

70:                                               ; preds = %63
  %71 = load i32, i32* %3, align 4
  %72 = sext i32 %71 to i64
  %73 = getelementptr inbounds [200 x i32], [200 x i32]* %10, i64 0, i64 %72
  %74 = load i32, i32* %73, align 4
  store i32 %74, i32* %8, align 4
  %75 = load i32, i32* %3, align 4
  store i32 %75, i32* %6, align 4
  br label %90

76:                                               ; preds = %63
  %77 = load i32, i32* %3, align 4
  %78 = sext i32 %77 to i64
  %79 = getelementptr inbounds [200 x i32], [200 x i32]* %10, i64 0, i64 %78
  %80 = load i32, i32* %79, align 4
  %81 = load i32, i32* %9, align 4
  %82 = icmp slt i32 %80, %81
  br i1 %82, label %83, label %89

83:                                               ; preds = %76
  %84 = load i32, i32* %3, align 4
  %85 = sext i32 %84 to i64
  %86 = getelementptr inbounds [200 x i32], [200 x i32]* %10, i64 0, i64 %85
  %87 = load i32, i32* %86, align 4
  store i32 %87, i32* %9, align 4
  %88 = load i32, i32* %3, align 4
  store i32 %88, i32* %7, align 4
  br label %89

89:                                               ; preds = %83, %76
  br label %90

90:                                               ; preds = %89, %70
  br label %91

91:                                               ; preds = %90
  %92 = load i32, i32* %3, align 4
  %93 = add nsw i32 %92, 1
  store i32 %93, i32* %3, align 4
  br label %59

94:                                               ; preds = %59
  %95 = load i32, i32* %6, align 4
  %96 = sext i32 %95 to i64
  %97 = getelementptr inbounds [200 x [20 x i8]], [200 x [20 x i8]]* %2, i64 0, i64 %96
  %98 = getelementptr inbounds [20 x i8], [20 x i8]* %97, i64 0, i64 0
  %99 = call i32 @puts(i8* %98)
  %100 = load i32, i32* %7, align 4
  %101 = sext i32 %100 to i64
  %102 = getelementptr inbounds [200 x [20 x i8]], [200 x [20 x i8]]* %2, i64 0, i64 %101
  %103 = getelementptr inbounds [20 x i8], [20 x i8]* %102, i64 0, i64 0
  %104 = call i32 @puts(i8* %103)
  %105 = load i32, i32* %1, align 4
  ret i32 %105
}

; Function Attrs: argmemonly nounwind willreturn
declare void @llvm.memset.p0i8.i64(i8* nocapture writeonly, i8, i64, i1 immarg) #1

declare dso_local i32 @__isoc99_scanf(i8*, ...) #2

; Function Attrs: nounwind readonly
declare dso_local i64 @strlen(i8*) #3

declare dso_local i32 @puts(i8*) #2


!llvm.module.flags = !{!0}
!llvm.ident = !{!1}

!0 = !{i32 1, !"wchar_size", i32 4}
!1 = !{!"clang version 10.0.0-4ubuntu1 "}
